target datalayout = "e-m:e-p270:32:32-p271:32:32-p272:64:64-i64:64-i128:128-f80:128-n8:16:32:64-S128"
target triple = "x86_64-pc-linux-gnu"

%struct.oscore_context = type { ptr, ptr, ptr, ptr, ptr, i32, ptr, ptr, ptr, ptr, ptr, ptr, ptr, ptr }

; Function Attrs: null_pointer_is_valid sspstrong uwtable
define internal void @oscore_context_free_byte_arrays(ptr noundef %0) #0 {
  %2 = alloca ptr, align 8
  store ptr %0, ptr %2, align 8
  %3 = load ptr, ptr %2, align 8
  %4 = getelementptr inbounds nuw %struct.oscore_context, ptr %3, i32 0, i32 6
  %5 = load ptr, ptr %4, align 8
  %6 = icmp ne ptr %5, null
  br i1 %6, label %7, label %12

7:                                                ; preds = %1
  %8 = load ptr, ptr %2, align 8
  %9 = getelementptr inbounds nuw %struct.oscore_context, ptr %8, i32 0, i32 6
  %10 = load ptr, ptr %9, align 8
  %11 = call ptr @g_byte_array_free(ptr noundef %10, i32 noundef 1)
  br label %12

12:                                               ; preds = %7, %1
  %13 = load ptr, ptr %2, align 8
  %14 = getelementptr inbounds nuw %struct.oscore_context, ptr %13, i32 0, i32 7
  %15 = load ptr, ptr %14, align 8
  %16 = icmp ne ptr %15, null
  br i1 %16, label %17, label %22

17:                                               ; preds = %12
  %18 = load ptr, ptr %2, align 8
  %19 = getelementptr inbounds nuw %struct.oscore_context, ptr %18, i32 0, i32 7
  %20 = load ptr, ptr %19, align 8
  %21 = call ptr @g_byte_array_free(ptr noundef %20, i32 noundef 1)
  br label %22

22:                                               ; preds = %17, %12
  %23 = load ptr, ptr %2, align 8
  %24 = getelementptr inbounds nuw %struct.oscore_context, ptr %23, i32 0, i32 8
  %25 = load ptr, ptr %24, align 8
  %26 = icmp ne ptr %25, null
  br i1 %26, label %27, label %32

27:                                               ; preds = %22
  %28 = load ptr, ptr %2, align 8
  %29 = getelementptr inbounds nuw %struct.oscore_context, ptr %28, i32 0, i32 8
  %30 = load ptr, ptr %29, align 8
  %31 = call ptr @g_byte_array_free(ptr noundef %30, i32 noundef 1)
  br label %32

32:                                               ; preds = %27, %22
  %33 = load ptr, ptr %2, align 8
  %34 = getelementptr inbounds nuw %struct.oscore_context, ptr %33, i32 0, i32 9
  %35 = load ptr, ptr %34, align 8
  %36 = icmp ne ptr %35, null
  br i1 %36, label %37, label %42

37:                                               ; preds = %32
  %38 = load ptr, ptr %2, align 8
  %39 = getelementptr inbounds nuw %struct.oscore_context, ptr %38, i32 0, i32 9
  %40 = load ptr, ptr %39, align 8
  %41 = call ptr @g_byte_array_free(ptr noundef %40, i32 noundef 1)
  br label %42

42:                                               ; preds = %37, %32
  %43 = load ptr, ptr %2, align 8
  %44 = getelementptr inbounds nuw %struct.oscore_context, ptr %43, i32 0, i32 10
  %45 = load ptr, ptr %44, align 8
  %46 = icmp ne ptr %45, null
  br i1 %46, label %47, label %52

47:                                               ; preds = %42
  %48 = load ptr, ptr %2, align 8
  %49 = getelementptr inbounds nuw %struct.oscore_context, ptr %48, i32 0, i32 10
  %50 = load ptr, ptr %49, align 8
  %51 = call ptr @g_byte_array_free(ptr noundef %50, i32 noundef 1)
  br label %52

52:                                               ; preds = %47, %42
  %53 = load ptr, ptr %2, align 8
  %54 = getelementptr inbounds nuw %struct.oscore_context, ptr %53, i32 0, i32 11
  %55 = load ptr, ptr %54, align 8
  %56 = icmp ne ptr %55, null
  br i1 %56, label %57, label %62

57:                                               ; preds = %52
  %58 = load ptr, ptr %2, align 8
  %59 = getelementptr inbounds nuw %struct.oscore_context, ptr %58, i32 0, i32 11
  %60 = load ptr, ptr %59, align 8
  %61 = call ptr @g_byte_array_free(ptr noundef %60, i32 noundef 1)
  br label %62

62:                                               ; preds = %57, %52
  %63 = load ptr, ptr %2, align 8
  %64 = getelementptr inbounds nuw %struct.oscore_context, ptr %63, i32 0, i32 12
  %65 = load ptr, ptr %64, align 8
  %66 = icmp ne ptr %65, null
  br i1 %66, label %67, label %72

67:                                               ; preds = %62
  %68 = load ptr, ptr %2, align 8
  %69 = getelementptr inbounds nuw %struct.oscore_context, ptr %68, i32 0, i32 12
  %70 = load ptr, ptr %69, align 8
  %71 = call ptr @g_byte_array_free(ptr noundef %70, i32 noundef 1)
  br label %72

72:                                               ; preds = %67, %62
  %73 = load ptr, ptr %2, align 8
  %74 = getelementptr inbounds nuw %struct.oscore_context, ptr %73, i32 0, i32 13
  %75 = load ptr, ptr %74, align 8
  %76 = icmp ne ptr %75, null
  br i1 %76, label %77, label %82

77:                                               ; preds = %72
  %78 = load ptr, ptr %2, align 8
  %79 = getelementptr inbounds nuw %struct.oscore_context, ptr %78, i32 0, i32 13
  %80 = load ptr, ptr %79, align 8
  %81 = call ptr @g_byte_array_free(ptr noundef %80, i32 noundef 1)
  br label %82

82:                                               ; preds = %77, %72
  ret void
}