; Function Attrs: null_pointer_is_valid sspstrong uwtable
define internal fastcc void @oscore_context_free_byte_arrays(ptr noundef readonly captures(none) %0) unnamed_addr #0 {
  %2 = getelementptr inbounds nuw i8, ptr %0, i64 48
  %3 = load ptr, ptr %2, align 8
  %.not = icmp eq ptr %3, null
  br i1 %.not, label %6, label %4

4:                                                ; preds = %1
  %5 = tail call ptr @g_byte_array_free(ptr noundef nonnull %3, i32 noundef 1)
  br label %6

6:                                                ; preds = %4, %1
  %7 = getelementptr inbounds nuw i8, ptr %0, i64 56
  %8 = load ptr, ptr %7, align 8
  %.not23 = icmp eq ptr %8, null
  br i1 %.not23, label %11, label %9

9:                                                ; preds = %6
  %10 = tail call ptr @g_byte_array_free(ptr noundef nonnull %8, i32 noundef 1)
  br label %11

11:                                               ; preds = %9, %6
  %12 = getelementptr inbounds nuw i8, ptr %0, i64 64
  %13 = load ptr, ptr %12, align 8
  %.not24 = icmp eq ptr %13, null
  br i1 %.not24, label %16, label %14

14:                                               ; preds = %11
  %15 = tail call ptr @g_byte_array_free(ptr noundef nonnull %13, i32 noundef 1)
  br label %16

16:                                               ; preds = %14, %11
  %17 = getelementptr inbounds nuw i8, ptr %0, i64 72
  %18 = load ptr, ptr %17, align 8
  %.not25 = icmp eq ptr %18, null
  br i1 %.not25, label %21, label %19

19:                                               ; preds = %16
  %20 = tail call ptr @g_byte_array_free(ptr noundef nonnull %18, i32 noundef 1)
  br label %21

21:                                               ; preds = %19, %16
  %22 = getelementptr inbounds nuw i8, ptr %0, i64 80
  %23 = load ptr, ptr %22, align 8
  %.not26 = icmp eq ptr %23, null
  br i1 %.not26, label %26, label %24

24:                                               ; preds = %21
  %25 = tail call ptr @g_byte_array_free(ptr noundef nonnull %23, i32 noundef 1)
  br label %26

26:                                               ; preds = %24, %21
  %27 = getelementptr inbounds nuw i8, ptr %0, i64 88
  %28 = load ptr, ptr %27, align 8
  %.not27 = icmp eq ptr %28, null
  br i1 %.not27, label %31, label %29

29:                                               ; preds = %26
  %30 = tail call ptr @g_byte_array_free(ptr noundef nonnull %28, i32 noundef 1)
  br label %31

31:                                               ; preds = %29, %26
  %32 = getelementptr inbounds nuw i8, ptr %0, i64 96
  %33 = load ptr, ptr %32, align 8
  %.not28 = icmp eq ptr %33, null
  br i1 %.not28, label %36, label %34

34:                                               ; preds = %31
  %35 = tail call ptr @g_byte_array_free(ptr noundef nonnull %33, i32 noundef 1)
  br label %36

36:                                               ; preds = %34, %31
  %37 = getelementptr inbounds nuw i8, ptr %0, i64 104
  %38 = load ptr, ptr %37, align 8
  %.not29 = icmp eq ptr %38, null
  br i1 %.not29, label %41, label %39

39:                                               ; preds = %36
  %40 = tail call ptr @g_byte_array_free(ptr noundef nonnull %38, i32 noundef 1)
  br label %41

41:                                               ; preds = %39, %36
  ret void
}